; Function Attrs: mustprogress nofree nounwind willreturn memory(readwrite, inaccessiblemem: write) uwtable
define hidden void @_ZN19OpenColorIO_v2_5dev7LogUtil20ConvertFromCTFToOCIOERKSt6vectorIdSaIdEERS3_(ptr noundef nonnull readonly align 8 captures(none) dereferenceable(24) %0, ptr noundef nonnull readonly align 8 captures(none) dereferenceable(24) %1) local_unnamed_addr #6 {
  %3 = load ptr, ptr %0, align 8, !tbaa !13
  %4 = load double, ptr %3, align 8, !tbaa !16
  %5 = getelementptr inbounds nuw i8, ptr %3, i64 8
  %6 = load double, ptr %5, align 8, !tbaa !16
  %7 = fdiv double %6, 1.023000e+03
  %8 = getelementptr inbounds nuw i8, ptr %3, i64 16
  %9 = load double, ptr %8, align 8, !tbaa !16
  %10 = fdiv double %9, 1.023000e+03
  %11 = getelementptr inbounds nuw i8, ptr %3, i64 24
  %12 = load double, ptr %11, align 8, !tbaa !16
  %13 = getelementptr inbounds nuw i8, ptr %3, i64 32
  %14 = load double, ptr %13, align 8, !tbaa !16
  %15 = fdiv double 0x40005E353F7CED92, %4
  %16 = fsub double %10, %7
  %17 = fmul double %15, %16
  %18 = fcmp ogt double %17, -1.000000e-04
  %.sroa.speculated = select i1 %18, double -1.000000e-04, double %17
  %19 = fsub double %12, %14
  %20 = tail call double @pow(double noundef 1.000000e+01, double noundef %.sroa.speculated) #19, !tbaa !18
  %21 = fsub double 1.000000e+00, %20
  %22 = fdiv double %19, %21
  %23 = fsub double %22, %19
  %24 = fdiv double 1.000000e+00, %15
  %25 = load ptr, ptr %1, align 8, !tbaa !13
  store double %24, ptr %25, align 8, !tbaa !16
  %26 = fdiv double 1.000000e+00, %22
  %27 = getelementptr inbounds nuw i8, ptr %25, i64 16
  store double %26, ptr %27, align 8, !tbaa !16
  %28 = fsub double %23, %14
  %29 = fdiv double %28, %22
  %30 = getelementptr inbounds nuw i8, ptr %25, i64 24
  store double %29, ptr %30, align 8, !tbaa !16
  %31 = getelementptr inbounds nuw i8, ptr %25, i64 8
  store double %7, ptr %31, align 8, !tbaa !16
  ret void
}